(lp0
ccopy_reg
_reconstructor
p1
(c__main__
SwitcharooScore
p2
c__builtin__
object
p3
Ntp4
Rp5
(dp6
S'score'
p7
I2000
sS'name'
p8
S'Hudzilla'
p9
sbag1
(g2
g3
Ntp10
Rp11
(dp12
g7
I1800
sg8
g9
sbag1
(g2
g3
Ntp13
Rp14
(dp15
g7
I1600
sg8
g9
sbag1
(g2
g3
Ntp16
Rp17
(dp18
g7
I1400
sg8
g9
sbag1
(g2
g3
Ntp19
Rp20
(dp21
g7
I1200
sg8
g9
sbag1
(g2
g3
Ntp22
Rp23
(dp24
g7
I1000
sg8
g9
sbag1
(g2
g3
Ntp25
Rp26
(dp27
g7
I800
sg8
g9
sbag1
(g2
g3
Ntp28
Rp29
(dp30
g7
I600
sg8
g9
sbag1
(g2
g3
Ntp31
Rp32
(dp33
g7
I400
sg8
g9
sbag1
(g2
g3
Ntp34
Rp35
(dp36
g7
I200
sg8
g9
sba.